target datalayout = "e-m:e-p270:32:32-p271:32:32-p272:64:64-i64:64-i128:128-f80:128-n8:16:32:64-S128"
target triple = "x86_64-unknown-linux-gnu"

%"class.llvh::StringRef" = type { ptr, i64 }
%"class.llvh::SMLoc" = type { ptr }
%"class.std::__cxx11::basic_string" = type { %"struct.std::__cxx11::basic_string<char>::_Alloc_hider", i64, %union.anon }
%"struct.std::__cxx11::basic_string<char>::_Alloc_hider" = type { ptr }
%union.anon = type { i64, [8 x i8] }
%"struct.llvh::FileCheckRequest" = type <{ %"class.std::vector", i8, [7 x i8], %"class.std::vector", %"class.std::vector", i8, i8, i8, i8, i8, i8, [2 x i8] }>
%"class.std::vector" = type { %"struct.std::_Vector_base" }
%"struct.std::_Vector_base" = type { %"struct.std::_Vector_base<std::__cxx11::basic_string<char>, std::allocator<std::__cxx11::basic_string<char>>>::_Vector_impl" }
%"struct.std::_Vector_base<std::__cxx11::basic_string<char>, std::allocator<std::__cxx11::basic_string<char>>>::_Vector_impl" = type { %"struct.std::_Vector_base<std::__cxx11::basic_string<char>, std::allocator<std::__cxx11::basic_string<char>>>::_Vector_impl_data" }
%"struct.std::_Vector_base<std::__cxx11::basic_string<char>, std::allocator<std::__cxx11::basic_string<char>>>::_Vector_impl_data" = type { ptr, ptr, ptr }
%"class.llvh::FileCheckPattern" = type { %"class.llvh::SMLoc", %"class.llvh::StringRef", %"class.std::__cxx11::basic_string", %"class.std::vector.3", %"class.std::map", i32, i32 }
%"class.std::vector.3" = type { %"struct.std::_Vector_base.4" }
%"struct.std::_Vector_base.4" = type { %"struct.std::_Vector_base<std::pair<llvh::StringRef, unsigned int>, std::allocator<std::pair<llvh::StringRef, unsigned int>>>::_Vector_impl" }
%"struct.std::_Vector_base<std::pair<llvh::StringRef, unsigned int>, std::allocator<std::pair<llvh::StringRef, unsigned int>>>::_Vector_impl" = type { %"struct.std::_Vector_base<std::pair<llvh::StringRef, unsigned int>, std::allocator<std::pair<llvh::StringRef, unsigned int>>>::_Vector_impl_data" }
%"struct.std::_Vector_base<std::pair<llvh::StringRef, unsigned int>, std::allocator<std::pair<llvh::StringRef, unsigned int>>>::_Vector_impl_data" = type { ptr, ptr, ptr }
%"class.std::map" = type { %"class.std::_Rb_tree" }
%"class.std::_Rb_tree" = type { %"struct.std::_Rb_tree<llvh::StringRef, std::pair<const llvh::StringRef, unsigned int>, std::_Select1st<std::pair<const llvh::StringRef, unsigned int>>, std::less<llvh::StringRef>>::_Rb_tree_impl" }
%"struct.std::_Rb_tree<llvh::StringRef, std::pair<const llvh::StringRef, unsigned int>, std::_Select1st<std::pair<const llvh::StringRef, unsigned int>>, std::less<llvh::StringRef>>::_Rb_tree_impl" = type { %"struct.std::_Rb_tree_key_compare", %"struct.std::_Rb_tree_header" }
%"struct.std::_Rb_tree_key_compare" = type { %"struct.std::less" }
%"struct.std::less" = type { i8 }
%"struct.std::_Rb_tree_header" = type { %"struct.std::_Rb_tree_node_base", i64 }
%"struct.std::_Rb_tree_node_base" = type { i32, ptr, ptr, ptr }
%"class.std::vector.43" = type { %"struct.std::_Vector_base.44" }
%"struct.std::_Vector_base.44" = type { %"struct.std::_Vector_base<llvh::FileCheckPattern, std::allocator<llvh::FileCheckPattern>>::_Vector_impl" }
%"struct.std::_Vector_base<llvh::FileCheckPattern, std::allocator<llvh::FileCheckPattern>>::_Vector_impl" = type { %"struct.std::_Vector_base<llvh::FileCheckPattern, std::allocator<llvh::FileCheckPattern>>::_Vector_impl_data" }
%"struct.std::_Vector_base<llvh::FileCheckPattern, std::allocator<llvh::FileCheckPattern>>::_Vector_impl_data" = type { ptr, ptr, ptr }
%"struct.llvh::FileCheckString" = type { %"class.llvh::FileCheckPattern", %"class.llvh::StringRef", %"class.llvh::SMLoc", %"class.std::vector.43" }
%"struct.std::_Vector_base.57" = type { %"struct.std::_Vector_base<const llvh::FileCheckPattern *, std::allocator<const llvh::FileCheckPattern *>>::_Vector_impl" }
%"struct.std::_Vector_base<const llvh::FileCheckPattern *, std::allocator<const llvh::FileCheckPattern *>>::_Vector_impl" = type { %"struct.std::_Vector_base<const llvh::FileCheckPattern *, std::allocator<const llvh::FileCheckPattern *>>::_Vector_impl_data" }
%"struct.std::_Vector_base<const llvh::FileCheckPattern *, std::allocator<const llvh::FileCheckPattern *>>::_Vector_impl_data" = type { ptr, ptr, ptr }
%"class.__gnu_cxx::__normal_iterator.61" = type { ptr }

; Function Attrs: mustprogress nounwind uwtable
define linkonce_odr hidden noundef nonnull align 8 dereferenceable(8) ptr @_ZNK9__gnu_cxx17__normal_iteratorIPKPKN4llvh16FileCheckPatternESt6vectorIS4_SaIS4_EEE4baseEv(ptr noundef nonnull align 8 dereferenceable(8) %this) #0 comdat align 2 {
entry:
  %this.addr = alloca ptr, align 8
  store ptr %this, ptr %this.addr, align 8
  %this1 = load ptr, ptr %this.addr, align 8
  %_M_current = getelementptr inbounds %"class.__gnu_cxx::__normal_iterator.61", ptr %this1, i32 0, i32 0
  ret ptr %_M_current
}

; Function Attrs: mustprogress nounwind uwtable
define linkonce_odr hidden void @_ZN9__gnu_cxx17__normal_iteratorIPKPKN4llvh16FileCheckPatternESt6vectorIS4_SaIS4_EEEC2ERKS6_(ptr noundef nonnull align 8 dereferenceable(8) %this, ptr noundef nonnull align 8 dereferenceable(8) %__i) unnamed_addr #0 comdat align 2 {
entry:
  %this.addr = alloca ptr, align 8
  %__i.addr = alloca ptr, align 8
  store ptr %this, ptr %this.addr, align 8
  store ptr %__i, ptr %__i.addr, align 8
  %this1 = load ptr, ptr %this.addr, align 8
  %_M_current = getelementptr inbounds %"class.__gnu_cxx::__normal_iterator.61", ptr %this1, i32 0, i32 0
  %0 = load ptr, ptr %__i.addr, align 8
  %1 = load ptr, ptr %0, align 8
  store ptr %1, ptr %_M_current, align 8
  ret void
}

; Function Attrs: mustprogress nounwind uwtable
define linkonce_odr hidden noundef nonnull align 8 dereferenceable(8) ptr @_ZN9__gnu_cxx17__normal_iteratorIPKPKN4llvh16FileCheckPatternESt6vectorIS4_SaIS4_EEEppEv(ptr noundef nonnull align 8 dereferenceable(8) %this) #0 comdat align 2 {
entry:
  %this.addr = alloca ptr, align 8
  store ptr %this, ptr %this.addr, align 8
  %this1 = load ptr, ptr %this.addr, align 8
  %_M_current = getelementptr inbounds %"class.__gnu_cxx::__normal_iterator.61", ptr %this1, i32 0, i32 0
  %0 = load ptr, ptr %_M_current, align 8
  %incdec.ptr = getelementptr inbounds ptr, ptr %0, i32 1
  store ptr %incdec.ptr, ptr %_M_current, align 8
  ret ptr %this1
}

; Function Attrs: mustprogress nounwind uwtable
define linkonce_odr hidden ptr @_ZNK4llvh16FileCheckPattern6getLocEv(ptr noundef nonnull align 8 dereferenceable(136) %this) #0 comdat align 2 {
entry:
  %retval = alloca %"class.llvh::SMLoc", align 8
  %this.addr = alloca ptr, align 8
  store ptr %this, ptr %this.addr, align 8
  %this1 = load ptr, ptr %this.addr, align 8
  %PatternLoc = getelementptr inbounds %"class.llvh::FileCheckPattern", ptr %this1, i32 0, i32 0
  call void @llvm.memcpy.p0.p0.i64(ptr align 8 %retval, ptr align 8 %PatternLoc, i64 8, i1 false)
  %coerce.dive = getelementptr inbounds %"class.llvh::SMLoc", ptr %retval, i32 0, i32 0
  %0 = load ptr, ptr %coerce.dive, align 8
  ret ptr %0
}

; Function Attrs: mustprogress nounwind uwtable
define linkonce_odr hidden noundef nonnull align 8 dereferenceable(8) ptr @_ZNK9__gnu_cxx17__normal_iteratorIPKPKN4llvh16FileCheckPatternESt6vectorIS4_SaIS4_EEEdeEv(ptr noundef nonnull align 8 dereferenceable(8) %this) #0 comdat align 2 {
entry:
  %this.addr = alloca ptr, align 8
  store ptr %this, ptr %this.addr, align 8
  %this1 = load ptr, ptr %this.addr, align 8
  %_M_current = getelementptr inbounds %"class.__gnu_cxx::__normal_iterator.61", ptr %this1, i32 0, i32 0
  %0 = load ptr, ptr %_M_current, align 8
  ret ptr %0
}

; Function Attrs: mustprogress nounwind uwtable
define linkonce_odr hidden noundef zeroext i1 @_ZN9__gnu_cxxneIPKPKN4llvh16FileCheckPatternESt6vectorIS4_SaIS4_EEEEbRKNS_17__normal_iteratorIT_T0_EESF_(ptr noundef nonnull align 8 dereferenceable(8) %__lhs, ptr noundef nonnull align 8 dereferenceable(8) %__rhs) #0 comdat {
entry:
  %__lhs.addr = alloca ptr, align 8
  %__rhs.addr = alloca ptr, align 8
  store ptr %__lhs, ptr %__lhs.addr, align 8
  store ptr %__rhs, ptr %__rhs.addr, align 8
  %0 = load ptr, ptr %__lhs.addr, align 8
  %call = call noundef nonnull align 8 dereferenceable(8) ptr @_ZNK9__gnu_cxx17__normal_iteratorIPKPKN4llvh16FileCheckPatternESt6vectorIS4_SaIS4_EEE4baseEv(ptr noundef nonnull align 8 dereferenceable(8) %0) #13
  %1 = load ptr, ptr %call, align 8
  %2 = load ptr, ptr %__rhs.addr, align 8
  %call1 = call noundef nonnull align 8 dereferenceable(8) ptr @_ZNK9__gnu_cxx17__normal_iteratorIPKPKN4llvh16FileCheckPatternESt6vectorIS4_SaIS4_EEE4baseEv(ptr noundef nonnull align 8 dereferenceable(8) %2) #13
  %3 = load ptr, ptr %call1, align 8
  %cmp = icmp ne ptr %1, %3
  ret i1 %cmp
}

; Function Attrs: mustprogress nounwind uwtable
define linkonce_odr hidden ptr @_ZNKSt6vectorIPKN4llvh16FileCheckPatternESaIS3_EE3endEv(ptr noundef nonnull align 8 dereferenceable(24) %this) #0 comdat align 2 {
entry:
  %retval = alloca %"class.__gnu_cxx::__normal_iterator.61", align 8
  %this.addr = alloca ptr, align 8
  store ptr %this, ptr %this.addr, align 8
  %this1 = load ptr, ptr %this.addr, align 8
  %_M_impl = getelementptr inbounds %"struct.std::_Vector_base.57", ptr %this1, i32 0, i32 0
  %_M_finish = getelementptr inbounds %"struct.std::_Vector_base<const llvh::FileCheckPattern *, std::allocator<const llvh::FileCheckPattern *>>::_Vector_impl_data", ptr %_M_impl, i32 0, i32 1
  call void @_ZN9__gnu_cxx17__normal_iteratorIPKPKN4llvh16FileCheckPatternESt6vectorIS4_SaIS4_EEEC2ERKS6_(ptr noundef nonnull align 8 dereferenceable(8) %retval, ptr noundef nonnull align 8 dereferenceable(8) %_M_finish) #13
  %coerce.dive = getelementptr inbounds %"class.__gnu_cxx::__normal_iterator.61", ptr %retval, i32 0, i32 0
  %0 = load ptr, ptr %coerce.dive, align 8
  ret ptr %0
}

; Function Attrs: mustprogress nounwind uwtable
define linkonce_odr hidden ptr @_ZNKSt6vectorIPKN4llvh16FileCheckPatternESaIS3_EE5beginEv(ptr noundef nonnull align 8 dereferenceable(24) %this) #0 comdat align 2 {
entry:
  %retval = alloca %"class.__gnu_cxx::__normal_iterator.61", align 8
  %this.addr = alloca ptr, align 8
  store ptr %this, ptr %this.addr, align 8
  %this1 = load ptr, ptr %this.addr, align 8
  %_M_impl = getelementptr inbounds %"struct.std::_Vector_base.57", ptr %this1, i32 0, i32 0
  %_M_start = getelementptr inbounds %"struct.std::_Vector_base<const llvh::FileCheckPattern *, std::allocator<const llvh::FileCheckPattern *>>::_Vector_impl_data", ptr %_M_impl, i32 0, i32 0
  call void @_ZN9__gnu_cxx17__normal_iteratorIPKPKN4llvh16FileCheckPatternESt6vectorIS4_SaIS4_EEEC2ERKS6_(ptr noundef nonnull align 8 dereferenceable(8) %retval, ptr noundef nonnull align 8 dereferenceable(8) %_M_start) #13
  %coerce.dive = getelementptr inbounds %"class.__gnu_cxx::__normal_iterator.61", ptr %retval, i32 0, i32 0
  %0 = load ptr, ptr %coerce.dive, align 8
  ret ptr %0
}

; Function Attrs: mustprogress nounwind uwtable
define hidden noundef zeroext i1 @_ZNK4llvh15FileCheckString8CheckNotERKNS_9SourceMgrENS_9StringRefERKSt6vectorIPKNS_16FileCheckPatternESaIS8_EERNS_9StringMapIS4_NS_15MallocAllocatorEEERKNS_16FileCheckRequestE(ptr noundef nonnull align 8 dereferenceable(184) %this, ptr noundef nonnull align 8 dereferenceable(120) %SM, ptr %Buffer.coerce0, i64 %Buffer.coerce1, ptr noundef nonnull align 8 dereferenceable(24) %NotStrings, ptr noundef nonnull align 8 dereferenceable(25) %VariableTable, ptr noundef nonnull align 8 dereferenceable(86) %Req) #0 align 2 {
entry:
  %retval = alloca i1, align 1
  %Buffer = alloca %"class.llvh::StringRef", align 8
  %this.addr = alloca ptr, align 8
  %SM.addr = alloca ptr, align 8
  %NotStrings.addr = alloca ptr, align 8
  %VariableTable.addr = alloca ptr, align 8
  %Req.addr = alloca ptr, align 8
  %__range1 = alloca ptr, align 8
  %__begin1 = alloca %"class.__gnu_cxx::__normal_iterator.61", align 8
  %__end1 = alloca %"class.__gnu_cxx::__normal_iterator.61", align 8
  %Pat = alloca ptr, align 8
  %MatchLen = alloca i64, align 8
  %Pos = alloca i64, align 8
  %agg.tmp = alloca %"class.llvh::StringRef", align 8
  %agg.tmp7 = alloca %"class.llvh::StringRef", align 8
  %agg.tmp8 = alloca %"class.llvh::SMLoc", align 8
  %agg.tmp11 = alloca %"class.llvh::StringRef", align 8
  %agg.tmp13 = alloca %"class.llvh::StringRef", align 8
  %agg.tmp15 = alloca %"class.llvh::SMLoc", align 8
  %agg.tmp18 = alloca %"class.llvh::StringRef", align 8
  %0 = getelementptr inbounds { ptr, i64 }, ptr %Buffer, i32 0, i32 0
  store ptr %Buffer.coerce0, ptr %0, align 8
  %1 = getelementptr inbounds { ptr, i64 }, ptr %Buffer, i32 0, i32 1
  store i64 %Buffer.coerce1, ptr %1, align 8
  store ptr %this, ptr %this.addr, align 8
  store ptr %SM, ptr %SM.addr, align 8
  store ptr %NotStrings, ptr %NotStrings.addr, align 8
  store ptr %VariableTable, ptr %VariableTable.addr, align 8
  store ptr %Req, ptr %Req.addr, align 8
  %this1 = load ptr, ptr %this.addr, align 8
  %2 = load ptr, ptr %NotStrings.addr, align 8
  store ptr %2, ptr %__range1, align 8
  %3 = load ptr, ptr %__range1, align 8
  %call = call ptr @_ZNKSt6vectorIPKN4llvh16FileCheckPatternESaIS3_EE5beginEv(ptr noundef nonnull align 8 dereferenceable(24) %3) #13
  %coerce.dive = getelementptr inbounds %"class.__gnu_cxx::__normal_iterator.61", ptr %__begin1, i32 0, i32 0
  store ptr %call, ptr %coerce.dive, align 8
  %4 = load ptr, ptr %__range1, align 8
  %call2 = call ptr @_ZNKSt6vectorIPKN4llvh16FileCheckPatternESaIS3_EE3endEv(ptr noundef nonnull align 8 dereferenceable(24) %4) #13
  %coerce.dive3 = getelementptr inbounds %"class.__gnu_cxx::__normal_iterator.61", ptr %__end1, i32 0, i32 0
  store ptr %call2, ptr %coerce.dive3, align 8
  br label %for.cond

for.cond:                                         ; preds = %for.inc, %entry
  %call4 = call noundef zeroext i1 @_ZN9__gnu_cxxneIPKPKN4llvh16FileCheckPatternESt6vectorIS4_SaIS4_EEEEbRKNS_17__normal_iteratorIT_T0_EESF_(ptr noundef nonnull align 8 dereferenceable(8) %__begin1, ptr noundef nonnull align 8 dereferenceable(8) %__end1) #13
  br i1 %call4, label %for.body, label %for.end

for.body:                                         ; preds = %for.cond
  %call5 = call noundef nonnull align 8 dereferenceable(8) ptr @_ZNK9__gnu_cxx17__normal_iteratorIPKPKN4llvh16FileCheckPatternESt6vectorIS4_SaIS4_EEEdeEv(ptr noundef nonnull align 8 dereferenceable(8) %__begin1) #13
  %5 = load ptr, ptr %call5, align 8
  store ptr %5, ptr %Pat, align 8
  store i64 0, ptr %MatchLen, align 8
  %6 = load ptr, ptr %Pat, align 8
  call void @llvm.memcpy.p0.p0.i64(ptr align 8 %agg.tmp, ptr align 8 %Buffer, i64 16, i1 false)
  %7 = load ptr, ptr %VariableTable.addr, align 8
  %8 = getelementptr inbounds { ptr, i64 }, ptr %agg.tmp, i32 0, i32 0
  %9 = load ptr, ptr %8, align 8
  %10 = getelementptr inbounds { ptr, i64 }, ptr %agg.tmp, i32 0, i32 1
  %11 = load i64, ptr %10, align 8
  %call6 = call noundef i64 @_ZNK4llvh16FileCheckPattern5MatchENS_9StringRefERmRNS_9StringMapIS1_NS_15MallocAllocatorEEE(ptr noundef nonnull align 8 dereferenceable(136) %6, ptr %9, i64 %11, ptr noundef nonnull align 8 dereferenceable(8) %MatchLen, ptr noundef nonnull align 8 dereferenceable(25) %7)
  store i64 %call6, ptr %Pos, align 8
  %12 = load i64, ptr %Pos, align 8
  %cmp = icmp eq i64 %12, -1
  br i1 %cmp, label %if.then, label %if.end

if.then:                                          ; preds = %for.body
  %13 = load ptr, ptr %SM.addr, align 8
  %Prefix = getelementptr inbounds %"struct.llvh::FileCheckString", ptr %this1, i32 0, i32 1
  call void @llvm.memcpy.p0.p0.i64(ptr align 8 %agg.tmp7, ptr align 8 %Prefix, i64 16, i1 false)
  %14 = load ptr, ptr %Pat, align 8
  %call9 = call ptr @_ZNK4llvh16FileCheckPattern6getLocEv(ptr noundef nonnull align 8 dereferenceable(136) %14)
  %coerce.dive10 = getelementptr inbounds %"class.llvh::SMLoc", ptr %agg.tmp8, i32 0, i32 0
  store ptr %call9, ptr %coerce.dive10, align 8
  %15 = load ptr, ptr %Pat, align 8
  call void @llvm.memcpy.p0.p0.i64(ptr align 8 %agg.tmp11, ptr align 8 %Buffer, i64 16, i1 false)
  %16 = load ptr, ptr %VariableTable.addr, align 8
  %17 = load ptr, ptr %Req.addr, align 8
  %VerboseVerbose = getelementptr inbounds %"struct.llvh::FileCheckRequest", ptr %17, i32 0, i32 10
  %18 = load i8, ptr %VerboseVerbose, align 1
  %tobool = trunc i8 %18 to i1
  %19 = getelementptr inbounds { ptr, i64 }, ptr %agg.tmp7, i32 0, i32 0
  %20 = load ptr, ptr %19, align 8
  %21 = getelementptr inbounds { ptr, i64 }, ptr %agg.tmp7, i32 0, i32 1
  %22 = load i64, ptr %21, align 8
  %coerce.dive12 = getelementptr inbounds %"class.llvh::SMLoc", ptr %agg.tmp8, i32 0, i32 0
  %23 = load ptr, ptr %coerce.dive12, align 8
  call void @_ZL12PrintNoMatchbRKN4llvh9SourceMgrENS_9StringRefENS_5SMLocERKNS_16FileCheckPatternES3_RNS_9StringMapIS3_NS_15MallocAllocatorEEEb(i1 noundef zeroext false, ptr noundef nonnull align 8 dereferenceable(120) %13, ptr %20, i64 %22, ptr %23, ptr noundef nonnull align 8 dereferenceable(136) %15, ptr noundef byval(%"class.llvh::StringRef") align 8 %agg.tmp11, ptr noundef nonnull align 8 dereferenceable(25) %16, i1 noundef zeroext %tobool)
  br label %for.inc

if.end:                                           ; preds = %for.body
  %24 = load ptr, ptr %SM.addr, align 8
  %Prefix14 = getelementptr inbounds %"struct.llvh::FileCheckString", ptr %this1, i32 0, i32 1
  call void @llvm.memcpy.p0.p0.i64(ptr align 8 %agg.tmp13, ptr align 8 %Prefix14, i64 16, i1 false)
  %25 = load ptr, ptr %Pat, align 8
  %call16 = call ptr @_ZNK4llvh16FileCheckPattern6getLocEv(ptr noundef nonnull align 8 dereferenceable(136) %25)
  %coerce.dive17 = getelementptr inbounds %"class.llvh::SMLoc", ptr %agg.tmp15, i32 0, i32 0
  store ptr %call16, ptr %coerce.dive17, align 8
  %26 = load ptr, ptr %Pat, align 8
  call void @llvm.memcpy.p0.p0.i64(ptr align 8 %agg.tmp18, ptr align 8 %Buffer, i64 16, i1 false)
  %27 = load ptr, ptr %VariableTable.addr, align 8
  %28 = load i64, ptr %Pos, align 8
  %29 = load i64, ptr %MatchLen, align 8
  %30 = load ptr, ptr %Req.addr, align 8
  %31 = getelementptr inbounds { ptr, i64 }, ptr %agg.tmp13, i32 0, i32 0
  %32 = load ptr, ptr %31, align 8
  %33 = getelementptr inbounds { ptr, i64 }, ptr %agg.tmp13, i32 0, i32 1
  %34 = load i64, ptr %33, align 8
  %coerce.dive19 = getelementptr inbounds %"class.llvh::SMLoc", ptr %agg.tmp15, i32 0, i32 0
  %35 = load ptr, ptr %coerce.dive19, align 8
  call void @_ZL10PrintMatchbRKN4llvh9SourceMgrENS_9StringRefENS_5SMLocERKNS_16FileCheckPatternES3_RNS_9StringMapIS3_NS_15MallocAllocatorEEEmmRKNS_16FileCheckRequestE(i1 noundef zeroext false, ptr noundef nonnull align 8 dereferenceable(120) %24, ptr %32, i64 %34, ptr %35, ptr noundef nonnull align 8 dereferenceable(136) %26, ptr noundef byval(%"class.llvh::StringRef") align 8 %agg.tmp18, ptr noundef nonnull align 8 dereferenceable(25) %27, i64 noundef %28, i64 noundef %29, ptr noundef nonnull align 8 dereferenceable(86) %30)
  store i1 true, ptr %retval, align 1
  br label %return

for.inc:                                          ; preds = %if.then
  %call20 = call noundef nonnull align 8 dereferenceable(8) ptr @_ZN9__gnu_cxx17__normal_iteratorIPKPKN4llvh16FileCheckPatternESt6vectorIS4_SaIS4_EEEppEv(ptr noundef nonnull align 8 dereferenceable(8) %__begin1) #13
  br label %for.cond

for.end:                                          ; preds = %for.cond
  store i1 false, ptr %retval, align 1
  br label %return

return:                                           ; preds = %for.end, %if.end
  %36 = load i1, ptr %retval, align 1
  ret i1 %36
}