; Function Attrs: mustprogress nounwind uwtable
define hidden noundef zeroext i1 @_ZNK4llvh15FileCheckString8CheckNotERKNS_9SourceMgrENS_9StringRefERKSt6vectorIPKNS_16FileCheckPatternESaIS8_EERNS_9StringMapIS4_NS_15MallocAllocatorEEERKNS_16FileCheckRequestE(ptr nocapture noundef nonnull readonly align 8 dereferenceable(184) %this, ptr noundef nonnull align 8 dereferenceable(120) %SM, ptr %Buffer.coerce0, i64 %Buffer.coerce1, ptr nocapture noundef nonnull readonly align 8 dereferenceable(24) %NotStrings, ptr noundef nonnull align 8 dereferenceable(25) %VariableTable, ptr nocapture noundef nonnull readonly align 8 dereferenceable(86) %Req) local_unnamed_addr #0 align 2 {
entry:
  %MatchLen = alloca i64, align 8
  %agg.tmp11 = alloca %"class.llvh::StringRef", align 8
  %0 = load ptr, ptr %NotStrings, align 8
  %_M_finish.i = getelementptr inbounds i8, ptr %NotStrings, i64 8
  %1 = load ptr, ptr %_M_finish.i, align 8
  %cmp.i20.not = icmp eq ptr %0, %1
  br i1 %cmp.i20.not, label %return, label %for.body.lr.ph

for.body.lr.ph:                                   ; preds = %entry
  %Prefix = getelementptr inbounds i8, ptr %this, i64 136
  %agg.tmp7.sroa.2.0.Prefix.sroa_idx = getelementptr inbounds i8, ptr %this, i64 144
  %Buffer.sroa.4.0.agg.tmp11.sroa_idx = getelementptr inbounds i8, ptr %agg.tmp11, i64 8
  %VerboseVerbose = getelementptr inbounds i8, ptr %Req, i64 85
  br label %for.body

for.body:                                         ; preds = %for.body.lr.ph, %if.then
  %__begin1.sroa.0.021 = phi ptr [ %0, %for.body.lr.ph ], [ %incdec.ptr.i, %if.then ]
  %2 = load ptr, ptr %__begin1.sroa.0.021, align 8
  store i64 0, ptr %MatchLen, align 8
  %call6 = call noundef i64 @_ZNK4llvh16FileCheckPattern5MatchENS_9StringRefERmRNS_9StringMapIS1_NS_15MallocAllocatorEEE(ptr noundef nonnull align 8 dereferenceable(136) %2, ptr %Buffer.coerce0, i64 %Buffer.coerce1, ptr noundef nonnull align 8 dereferenceable(8) %MatchLen, ptr noundef nonnull align 8 dereferenceable(25) %VariableTable)
  %cmp = icmp eq i64 %call6, -1
  %agg.tmp7.sroa.0.0.copyload = load ptr, ptr %Prefix, align 8
  %agg.tmp7.sroa.2.0.copyload = load i64, ptr %agg.tmp7.sroa.2.0.Prefix.sroa_idx, align 8
  %retval.sroa.0.0.copyload.i = load ptr, ptr %2, align 8
  br i1 %cmp, label %if.then, label %if.end

if.then:                                          ; preds = %for.body
  store ptr %Buffer.coerce0, ptr %agg.tmp11, align 8
  store i64 %Buffer.coerce1, ptr %Buffer.sroa.4.0.agg.tmp11.sroa_idx, align 8
  %3 = load i8, ptr %VerboseVerbose, align 1
  %4 = and i8 %3, 1
  %tobool = icmp ne i8 %4, 0
  tail call fastcc void @_ZL12PrintNoMatchbRKN4llvh9SourceMgrENS_9StringRefENS_5SMLocERKNS_16FileCheckPatternES3_RNS_9StringMapIS3_NS_15MallocAllocatorEEEb(i1 noundef zeroext false, ptr noundef nonnull align 8 dereferenceable(120) %SM, ptr %agg.tmp7.sroa.0.0.copyload, i64 %agg.tmp7.sroa.2.0.copyload, ptr %retval.sroa.0.0.copyload.i, ptr noundef nonnull align 8 dereferenceable(136) %2, ptr noundef nonnull byval(%"class.llvh::StringRef") align 8 %agg.tmp11, ptr noundef nonnull align 8 dereferenceable(25) %VariableTable, i1 noundef zeroext %tobool)
  %incdec.ptr.i = getelementptr inbounds i8, ptr %__begin1.sroa.0.021, i64 8
  %cmp.i.not = icmp eq ptr %incdec.ptr.i, %1
  br i1 %cmp.i.not, label %return, label %for.body

if.end:                                           ; preds = %for.body
  %5 = load i64, ptr %MatchLen, align 8
  %6 = getelementptr inbounds i8, ptr %Req, i64 84
  %Req.val = load i8, ptr %6, align 4
  %Req.val14 = load i8, ptr %VerboseVerbose, align 1
  tail call fastcc void @_ZL10PrintMatchbRKN4llvh9SourceMgrENS_9StringRefENS_5SMLocERKNS_16FileCheckPatternES3_RNS_9StringMapIS3_NS_15MallocAllocatorEEEmmRKNS_16FileCheckRequestE(i1 noundef zeroext false, ptr noundef nonnull align 8 dereferenceable(120) %SM, ptr %agg.tmp7.sroa.0.0.copyload, i64 %agg.tmp7.sroa.2.0.copyload, ptr %retval.sroa.0.0.copyload.i, ptr noundef nonnull align 8 dereferenceable(136) %2, ptr %Buffer.coerce0, i64 %Buffer.coerce1, ptr noundef nonnull align 8 dereferenceable(25) %VariableTable, i64 noundef %call6, i64 noundef %5, i8 %Req.val, i8 %Req.val14)
  br label %return

return:                                           ; preds = %if.then, %entry, %if.end
  %cmp.i19 = phi i1 [ true, %if.end ], [ false, %entry ], [ false, %if.then ]
  ret i1 %cmp.i19
}